
ILI9341-LCD-Module.elf:     file format elf32-avr

Sections:
Idx Name          Size      VMA       LMA       File off  Algn
  0 .data         00000000  00800100  000000b6  0000012a  2**0
                  CONTENTS, ALLOC, LOAD, DATA
  1 .text         000000b6  00000000  00000000  00000074  2**1
                  CONTENTS, ALLOC, LOAD, READONLY, CODE
  2 .stab         00003234  00000000  00000000  0000012c  2**2
                  CONTENTS, READONLY, DEBUGGING
  3 .stabstr      000032e3  00000000  00000000  00003360  2**0
                  CONTENTS, READONLY, DEBUGGING
  4 .comment      00000011  00000000  00000000  00006643  2**0
                  CONTENTS, READONLY

Disassembly of section .text:

00000000 <__vectors>:
   0:	33 c0       	rjmp	.+102    	; 0x68 <__ctors_end>
   2:	00 00       	nop
   4:	4c c0       	rjmp	.+152    	; 0x9e <__bad_interrupt>
   6:	00 00       	nop
   8:	4a c0       	rjmp	.+148    	; 0x9e <__bad_interrupt>
   a:	00 00       	nop
   c:	48 c0       	rjmp	.+144    	; 0x9e <__bad_interrupt>
   e:	00 00       	nop
  10:	46 c0       	rjmp	.+140    	; 0x9e <__bad_interrupt>
  12:	00 00       	nop
  14:	44 c0       	rjmp	.+136    	; 0x9e <__bad_interrupt>
  16:	00 00       	nop
  18:	42 c0       	rjmp	.+132    	; 0x9e <__bad_interrupt>
  1a:	00 00       	nop
  1c:	40 c0       	rjmp	.+128    	; 0x9e <__bad_interrupt>
  1e:	00 00       	nop
  20:	3e c0       	rjmp	.+124    	; 0x9e <__bad_interrupt>
  22:	00 00       	nop
  24:	3c c0       	rjmp	.+120    	; 0x9e <__bad_interrupt>
  26:	00 00       	nop
  28:	3a c0       	rjmp	.+116    	; 0x9e <__bad_interrupt>
  2a:	00 00       	nop
  2c:	38 c0       	rjmp	.+112    	; 0x9e <__bad_interrupt>
  2e:	00 00       	nop
  30:	36 c0       	rjmp	.+108    	; 0x9e <__bad_interrupt>
  32:	00 00       	nop
  34:	34 c0       	rjmp	.+104    	; 0x9e <__bad_interrupt>
  36:	00 00       	nop
  38:	32 c0       	rjmp	.+100    	; 0x9e <__bad_interrupt>
  3a:	00 00       	nop
  3c:	30 c0       	rjmp	.+96     	; 0x9e <__bad_interrupt>
  3e:	00 00       	nop
  40:	2e c0       	rjmp	.+92     	; 0x9e <__bad_interrupt>
  42:	00 00       	nop
  44:	2c c0       	rjmp	.+88     	; 0x9e <__bad_interrupt>
  46:	00 00       	nop
  48:	2a c0       	rjmp	.+84     	; 0x9e <__bad_interrupt>
  4a:	00 00       	nop
  4c:	28 c0       	rjmp	.+80     	; 0x9e <__bad_interrupt>
  4e:	00 00       	nop
  50:	26 c0       	rjmp	.+76     	; 0x9e <__bad_interrupt>
  52:	00 00       	nop
  54:	24 c0       	rjmp	.+72     	; 0x9e <__bad_interrupt>
  56:	00 00       	nop
  58:	22 c0       	rjmp	.+68     	; 0x9e <__bad_interrupt>
  5a:	00 00       	nop
  5c:	20 c0       	rjmp	.+64     	; 0x9e <__bad_interrupt>
  5e:	00 00       	nop
  60:	1e c0       	rjmp	.+60     	; 0x9e <__bad_interrupt>
  62:	00 00       	nop
  64:	1c c0       	rjmp	.+56     	; 0x9e <__bad_interrupt>
	...

00000068 <__ctors_end>:
  68:	11 24       	eor	r1, r1
  6a:	1f be       	out	0x3f, r1	; 63
  6c:	cf ef       	ldi	r28, 0xFF	; 255
  6e:	d8 e0       	ldi	r29, 0x08	; 8
  70:	de bf       	out	0x3e, r29	; 62
  72:	cd bf       	out	0x3d, r28	; 61

00000074 <__do_copy_data>:
  74:	11 e0       	ldi	r17, 0x01	; 1
  76:	a0 e0       	ldi	r26, 0x00	; 0
  78:	b1 e0       	ldi	r27, 0x01	; 1
  7a:	e6 eb       	ldi	r30, 0xB6	; 182
  7c:	f0 e0       	ldi	r31, 0x00	; 0
  7e:	02 c0       	rjmp	.+4      	; 0x84 <__do_copy_data+0x10>
  80:	05 90       	lpm	r0, Z+
  82:	0d 92       	st	X+, r0
  84:	a0 30       	cpi	r26, 0x00	; 0
  86:	b1 07       	cpc	r27, r17
  88:	d9 f7       	brne	.-10     	; 0x80 <__do_copy_data+0xc>

0000008a <__do_clear_bss>:
  8a:	11 e0       	ldi	r17, 0x01	; 1
  8c:	a0 e0       	ldi	r26, 0x00	; 0
  8e:	b1 e0       	ldi	r27, 0x01	; 1
  90:	01 c0       	rjmp	.+2      	; 0x94 <.do_clear_bss_start>

00000092 <.do_clear_bss_loop>:
  92:	1d 92       	st	X+, r1

00000094 <.do_clear_bss_start>:
  94:	a0 30       	cpi	r26, 0x00	; 0
  96:	b1 07       	cpc	r27, r17
  98:	e1 f7       	brne	.-8      	; 0x92 <.do_clear_bss_loop>
  9a:	02 d0       	rcall	.+4      	; 0xa0 <main>
  9c:	0a c0       	rjmp	.+20     	; 0xb2 <_exit>

0000009e <__bad_interrupt>:
  9e:	b0 cf       	rjmp	.-160    	; 0x0 <__vectors>

000000a0 <main>:
#include <avr/interrupt.h>
#include <util/delay.h>

#include "Adafruit_ILI9341.h"

int main(void){
  a0:	cf 93       	push	r28
  a2:	df 93       	push	r29
  a4:	cd b7       	in	r28, 0x3d	; 61
  a6:	de b7       	in	r29, 0x3e	; 62

}
  a8:	80 e0       	ldi	r24, 0x00	; 0
  aa:	90 e0       	ldi	r25, 0x00	; 0
  ac:	df 91       	pop	r29
  ae:	cf 91       	pop	r28
  b0:	08 95       	ret

000000b2 <_exit>:
  b2:	f8 94       	cli

000000b4 <__stop_program>:
  b4:	ff cf       	rjmp	.-2      	; 0xb4 <__stop_program>
